target datalayout = "e-m:e-p270:32:32-p271:32:32-p272:64:64-i64:64-i128:128-f80:128-n8:16:32:64-S128"
target triple = "x86_64-pc-linux-gnu"

; Function Attrs: nounwind uwtable
define internal i32 @setup_mock_crlout(ptr noundef %0, ptr noundef %1, ptr noundef %2) #0 {
  %4 = alloca i32, align 4
  %5 = alloca ptr, align 8
  %6 = alloca ptr, align 8
  %7 = alloca ptr, align 8
  %8 = alloca ptr, align 8
  %9 = alloca i32, align 4
  %10 = alloca i32, align 4
  store ptr %0, ptr %5, align 8, !tbaa !80
  store ptr %1, ptr %6, align 8, !tbaa !11
  store ptr %2, ptr %7, align 8, !tbaa !11
  call void @llvm.lifetime.start.p0(i64 8, ptr %8) #11
  call void @llvm.lifetime.start.p0(i64 4, ptr %9) #11
  %11 = load ptr, ptr %6, align 8, !tbaa !11
  %12 = icmp eq ptr %11, null
  br i1 %12, label %13, label %14

13:                                               ; preds = %3
  store i32 1, ptr %4, align 4
  store i32 1, ptr %10, align 4
  br label %26

14:                                               ; preds = %3
  %15 = load ptr, ptr %6, align 8, !tbaa !11
  %16 = load ptr, ptr %7, align 8, !tbaa !11
  %17 = call ptr @load_crl(ptr noundef %15, i32 noundef 0, i32 noundef 0, ptr noundef %16)
  store ptr %17, ptr %8, align 8, !tbaa !69
  %18 = icmp eq ptr %17, null
  br i1 %18, label %19, label %20

19:                                               ; preds = %14
  store i32 0, ptr %4, align 4
  store i32 1, ptr %10, align 4
  br label %26

20:                                               ; preds = %14
  %21 = load ptr, ptr %5, align 8, !tbaa !80
  %22 = load ptr, ptr %8, align 8, !tbaa !69
  %23 = call i32 @ossl_cmp_mock_srv_set1_crlOut(ptr noundef %21, ptr noundef %22)
  store i32 %23, ptr %9, align 4, !tbaa !4
  %24 = load ptr, ptr %8, align 8, !tbaa !69
  call void @X509_CRL_free(ptr noundef %24)
  %25 = load i32, ptr %9, align 4, !tbaa !4
  store i32 %25, ptr %4, align 4
  store i32 1, ptr %10, align 4
  br label %26

26:                                               ; preds = %20, %19, %13
  call void @llvm.lifetime.end.p0(i64 4, ptr %9) #11
  call void @llvm.lifetime.end.p0(i64 8, ptr %8) #11
  %27 = load i32, ptr %4, align 4
  ret i32 %27
}