; Function Attrs: nounwind uwtable
define internal fastcc i32 @setup_mock_crlout(ptr noundef nonnull %0, ptr noundef %1) unnamed_addr #0 {
  %3 = icmp eq ptr %1, null
  br i1 %3, label %9, label %4

4:                                                ; preds = %2
  %5 = tail call ptr @load_crl(ptr noundef nonnull %1, i32 noundef 0, i32 noundef 0, ptr noundef nonnull @.str.421) #12
  %6 = icmp eq ptr %5, null
  br i1 %6, label %9, label %7

7:                                                ; preds = %4
  %8 = tail call i32 @ossl_cmp_mock_srv_set1_crlOut(ptr noundef nonnull %0, ptr noundef nonnull %5) #12
  tail call void @X509_CRL_free(ptr noundef nonnull %5) #12
  br label %9

9:                                                ; preds = %4, %2, %7
  %.0 = phi i32 [ %8, %7 ], [ 1, %2 ], [ 0, %4 ]
  ret i32 %.0
}